target datalayout = "e-m:e-p270:32:32-p271:32:32-p272:64:64-i64:64-i128:128-f80:128-n8:16:32:64-S128"
target triple = "x86_64-pc-linux-gnu"

@.str.27 = private unnamed_addr constant [58 x i8] c"cli_decodesig: Resulting signature too large (%d vs %d).\0A\00", align 1
@.str.28 = private unnamed_addr constant [50 x i8] c"cli_decodesig: Can't allocate memory for 'plain'\0A\00", align 1
@__const.cli_ndecode.ncodec = private unnamed_addr constant [64 x i8] c"abcdefghijklmnopqrstuvwxyzABCDEFGHIJKLMNOPQRSTUVWXYZ0123456789+/", align 16
@.str.29 = private unnamed_addr constant [33 x i8] c"cli_ndecode: value out of range\0A\00", align 1

; Function Attrs: nounwind uwtable
define internal signext i8 @cli_ndecode(i8 noundef zeroext %0) #0 {
  %2 = alloca i8, align 1
  %3 = alloca i8, align 1
  %4 = alloca i32, align 4
  %5 = alloca [64 x i8], align 16
  store i8 %0, ptr %3, align 1
  call void @llvm.memcpy.p0.p0.i64(ptr align 16 %5, ptr align 16 @__const.cli_ndecode.ncodec, i64 64, i1 false)
  store i32 0, ptr %4, align 4
  br label %6

6:                                                ; preds = %22, %1
  %7 = load i32, ptr %4, align 4
  %8 = icmp ult i32 %7, 64
  br i1 %8, label %9, label %25

9:                                                ; preds = %6
  %10 = load i32, ptr %4, align 4
  %11 = zext i32 %10 to i64
  %12 = getelementptr inbounds [64 x i8], ptr %5, i64 0, i64 %11
  %13 = load i8, ptr %12, align 1
  %14 = sext i8 %13 to i32
  %15 = load i8, ptr %3, align 1
  %16 = zext i8 %15 to i32
  %17 = icmp eq i32 %14, %16
  br i1 %17, label %18, label %21

18:                                               ; preds = %9
  %19 = load i32, ptr %4, align 4
  %20 = trunc i32 %19 to i8
  store i8 %20, ptr %2, align 1
  br label %26

21:                                               ; preds = %9
  br label %22

22:                                               ; preds = %21
  %23 = load i32, ptr %4, align 4
  %24 = add i32 %23, 1
  store i32 %24, ptr %4, align 4
  br label %6

25:                                               ; preds = %6
  call void (ptr, ...) @cli_errmsg(ptr noundef @.str.29)
  store i8 -1, ptr %2, align 1
  br label %26

26:                                               ; preds = %25, %18
  %27 = load i8, ptr %2, align 1
  ret i8 %27
}

; Function Attrs: nounwind uwtable
define internal ptr @cli_decodesig(ptr noundef %0, i32 noundef %1, ptr noundef %2, ptr noundef %3) #0 {
  %5 = alloca ptr, align 8
  %6 = alloca i32, align 4
  %7 = alloca ptr, align 8
  %8 = alloca ptr, align 8
  %9 = alloca i32, align 4
  %10 = alloca i32, align 4
  %11 = alloca i32, align 4
  %12 = alloca ptr, align 8
  %13 = alloca ptr, align 8
  %14 = alloca ptr, align 8
  %15 = alloca ptr, align 8
  %16 = alloca ptr, align 8
  %17 = alloca ptr, align 8
  %18 = alloca i32, align 4
  store ptr %0, ptr %5, align 8
  store i32 %1, ptr %6, align 4
  store ptr %2, ptr %7, align 8
  store ptr %3, ptr %8, align 8
  %19 = load ptr, ptr %5, align 8
  %20 = call i64 @strlen(ptr noundef %19) #10
  %21 = trunc i64 %20 to i32
  store i32 %21, ptr %10, align 4
  store ptr null, ptr %12, align 8
  store ptr null, ptr %13, align 8
  store ptr null, ptr %14, align 8
  store ptr null, ptr %15, align 8
  store ptr null, ptr %16, align 8
  store ptr null, ptr %17, align 8
  %22 = call ptr @BN_new()
  store ptr %22, ptr %14, align 8
  %23 = load ptr, ptr %14, align 8
  %24 = icmp ne ptr %23, null
  br i1 %24, label %26, label %25

25:                                               ; preds = %4
  br label %118

26:                                               ; preds = %4
  %27 = call ptr @BN_new()
  store ptr %27, ptr %15, align 8
  %28 = load ptr, ptr %15, align 8
  %29 = icmp ne ptr %28, null
  br i1 %29, label %31, label %30

30:                                               ; preds = %26
  br label %118

31:                                               ; preds = %26
  %32 = call ptr @BN_new()
  store ptr %32, ptr %16, align 8
  %33 = load ptr, ptr %16, align 8
  %34 = icmp ne ptr %33, null
  br i1 %34, label %36, label %35

35:                                               ; preds = %31
  br label %118

36:                                               ; preds = %31
  %37 = call ptr @BN_CTX_new()
  store ptr %37, ptr %17, align 8
  %38 = load ptr, ptr %17, align 8
  %39 = icmp ne ptr %38, null
  br i1 %39, label %41, label %40

40:                                               ; preds = %36
  br label %118

41:                                               ; preds = %36
  %42 = load ptr, ptr %16, align 8
  call void @BN_zero_ex(ptr noundef %42)
  store i32 0, ptr %9, align 4
  br label %43

43:                                               ; preds = %80, %41
  %44 = load i32, ptr %9, align 4
  %45 = load i32, ptr %10, align 4
  %46 = icmp slt i32 %44, %45
  br i1 %46, label %47, label %83

47:                                               ; preds = %43
  %48 = load ptr, ptr %5, align 8
  %49 = load i32, ptr %9, align 4
  %50 = sext i32 %49 to i64
  %51 = getelementptr inbounds i8, ptr %48, i64 %50
  %52 = load i8, ptr %51, align 1
  %53 = call signext i8 @cli_ndecode(i8 noundef zeroext %52)
  %54 = sext i8 %53 to i32
  store i32 %54, ptr %11, align 4
  %55 = icmp slt i32 %54, 0
  br i1 %55, label %56, label %57

56:                                               ; preds = %47
  br label %118

57:                                               ; preds = %47
  %58 = load ptr, ptr %14, align 8
  %59 = load i32, ptr %11, align 4
  %60 = sext i32 %59 to i64
  %61 = call i32 @BN_set_word(ptr noundef %58, i64 noundef %60)
  %62 = icmp ne i32 %61, 0
  br i1 %62, label %64, label %63

63:                                               ; preds = %57
  br label %118

64:                                               ; preds = %57
  %65 = load ptr, ptr %14, align 8
  %66 = load ptr, ptr %14, align 8
  %67 = load i32, ptr %9, align 4
  %68 = mul nsw i32 6, %67
  %69 = call i32 @BN_lshift(ptr noundef %65, ptr noundef %66, i32 noundef %68)
  %70 = icmp ne i32 %69, 0
  br i1 %70, label %72, label %71

71:                                               ; preds = %64
  br label %118

72:                                               ; preds = %64
  %73 = load ptr, ptr %16, align 8
  %74 = load ptr, ptr %16, align 8
  %75 = load ptr, ptr %14, align 8
  %76 = call i32 @BN_add(ptr noundef %73, ptr noundef %74, ptr noundef %75)
  %77 = icmp ne i32 %76, 0
  br i1 %77, label %79, label %78

78:                                               ; preds = %72
  br label %118

79:                                               ; preds = %72
  br label %80

80:                                               ; preds = %79
  %81 = load i32, ptr %9, align 4
  %82 = add nsw i32 %81, 1
  store i32 %82, ptr %9, align 4
  br label %43

83:                                               ; preds = %43
  %84 = load ptr, ptr %15, align 8
  %85 = load ptr, ptr %16, align 8
  %86 = load ptr, ptr %7, align 8
  %87 = load ptr, ptr %8, align 8
  %88 = load ptr, ptr %17, align 8
  %89 = call i32 @BN_mod_exp(ptr noundef %84, ptr noundef %85, ptr noundef %86, ptr noundef %87, ptr noundef %88)
  %90 = icmp ne i32 %89, 0
  br i1 %90, label %92, label %91

91:                                               ; preds = %83
  br label %118

92:                                               ; preds = %83
  %93 = load ptr, ptr %15, align 8
  %94 = call i32 @BN_num_bits(ptr noundef %93)
  %95 = add nsw i32 %94, 7
  %96 = sdiv i32 %95, 8
  store i32 %96, ptr %18, align 4
  %97 = load i32, ptr %6, align 4
  %98 = load i32, ptr %18, align 4
  %99 = icmp ult i32 %97, %98
  br i1 %99, label %100, label %103

100:                                              ; preds = %92
  %101 = load i32, ptr %18, align 4
  %102 = load i32, ptr %6, align 4
  call void (ptr, ...) @cli_errmsg(ptr noundef @.str.27, i32 noundef %101, i32 noundef %102)
  br label %118

103:                                              ; preds = %92
  %104 = load i32, ptr %6, align 4
  %105 = zext i32 %104 to i64
  %106 = call noalias ptr @calloc(i64 noundef %105, i64 noundef 1) #11
  store ptr %106, ptr %12, align 8
  %107 = load ptr, ptr %12, align 8
  %108 = icmp ne ptr %107, null
  br i1 %108, label %110, label %109

109:                                              ; preds = %103
  call void (ptr, ...) @cli_errmsg(ptr noundef @.str.28)
  br label %118

110:                                              ; preds = %103
  %111 = load ptr, ptr %15, align 8
  %112 = load ptr, ptr %12, align 8
  %113 = call i32 @BN_bn2bin(ptr noundef %111, ptr noundef %112)
  %114 = icmp ne i32 %113, 0
  br i1 %114, label %116, label %115

115:                                              ; preds = %110
  br label %118

116:                                              ; preds = %110
  %117 = load ptr, ptr %12, align 8
  store ptr %117, ptr %13, align 8
  store ptr null, ptr %12, align 8
  br label %118

118:                                              ; preds = %116, %115, %109, %100, %91, %78, %71, %63, %56, %40, %35, %30, %25
  %119 = load ptr, ptr %14, align 8
  call void @BN_free(ptr noundef %119)
  %120 = load ptr, ptr %15, align 8
  call void @BN_free(ptr noundef %120)
  %121 = load ptr, ptr %16, align 8
  call void @BN_free(ptr noundef %121)
  %122 = load ptr, ptr %17, align 8
  call void @BN_CTX_free(ptr noundef %122)
  %123 = load ptr, ptr %12, align 8
  call void @free(ptr noundef %123) #8
  %124 = load ptr, ptr %13, align 8
  ret ptr %124
}