; Function Attrs: nounwind uwtable
define internal fastcc ptr @cli_decodesig(ptr nocapture noundef readonly %0, i32 noundef %1, ptr noundef %2, ptr noundef %3) unnamed_addr #0 {
  %5 = tail call i64 @strlen(ptr noundef nonnull dereferenceable(1) %0) #17
  %6 = trunc i64 %5 to i32
  %7 = tail call ptr @BN_new() #14
  %.not = icmp eq ptr %7, null
  br i1 %.not, label %.loopexit, label %8

8:                                                ; preds = %4
  %9 = tail call ptr @BN_new() #14
  %.not56 = icmp eq ptr %9, null
  br i1 %.not56, label %.loopexit, label %10

10:                                               ; preds = %8
  %11 = tail call ptr @BN_new() #14
  %.not57 = icmp eq ptr %11, null
  br i1 %.not57, label %.loopexit, label %12

12:                                               ; preds = %10
  %13 = tail call ptr @BN_CTX_new() #14
  %.not58 = icmp eq ptr %13, null
  br i1 %.not58, label %.loopexit, label %14

14:                                               ; preds = %12
  tail call void @BN_zero_ex(ptr noundef nonnull %11) #14
  %15 = icmp sgt i32 %6, 0
  br i1 %15, label %.lr.ph.preheader, label %._crit_edge

.lr.ph.preheader:                                 ; preds = %14
  %wide.trip.count = and i64 %5, 2147483647
  br label %.lr.ph

16:                                               ; preds = %34
  %indvars.iv.next = add nuw nsw i64 %indvars.iv, 1
  %exitcond.not = icmp eq i64 %indvars.iv.next, %wide.trip.count
  br i1 %exitcond.not, label %._crit_edge, label %.lr.ph

.lr.ph:                                           ; preds = %.lr.ph.preheader, %16
  %indvars.iv = phi i64 [ 0, %.lr.ph.preheader ], [ %indvars.iv.next, %16 ]
  %17 = getelementptr inbounds i8, ptr %0, i64 %indvars.iv
  %18 = load i8, ptr %17, align 1
  %19 = zext i8 %18 to i32
  br label %20

20:                                               ; preds = %25, %.lr.ph
  %indvars.iv.i = phi i64 [ 0, %.lr.ph ], [ %indvars.iv.next.i, %25 ]
  %21 = getelementptr inbounds [64 x i8], ptr @__const.cli_ndecode.ncodec, i64 0, i64 %indvars.iv.i
  %22 = load i8, ptr %21, align 1
  %23 = sext i8 %22 to i32
  %24 = icmp eq i32 %23, %19
  br i1 %24, label %cli_ndecode.exit, label %25

25:                                               ; preds = %20
  %indvars.iv.next.i = add nuw nsw i64 %indvars.iv.i, 1
  %exitcond.not.i = icmp eq i64 %indvars.iv.next.i, 64
  br i1 %exitcond.not.i, label %cli_ndecode.exit.thread, label %20

cli_ndecode.exit.thread:                          ; preds = %25
  tail call void (ptr, ...) @cli_errmsg(ptr noundef nonnull @.str.29) #14
  br label %.loopexit

cli_ndecode.exit:                                 ; preds = %20
  %26 = and i64 %indvars.iv.i, 128
  %.not67 = icmp eq i64 %26, 0
  br i1 %.not67, label %27, label %.loopexit

27:                                               ; preds = %cli_ndecode.exit
  %28 = and i64 %indvars.iv.i, 127
  %29 = tail call i32 @BN_set_word(ptr noundef nonnull %7, i64 noundef %28) #14
  %.not62 = icmp eq i32 %29, 0
  br i1 %.not62, label %.loopexit, label %30

30:                                               ; preds = %27
  %31 = trunc i64 %indvars.iv to i32
  %32 = mul i32 %31, 6
  %33 = tail call i32 @BN_lshift(ptr noundef nonnull %7, ptr noundef nonnull %7, i32 noundef %32) #14
  %.not63 = icmp eq i32 %33, 0
  br i1 %.not63, label %.loopexit, label %34

34:                                               ; preds = %30
  %35 = tail call i32 @BN_add(ptr noundef nonnull %11, ptr noundef nonnull %11, ptr noundef nonnull %7) #14
  %.not64 = icmp eq i32 %35, 0
  br i1 %.not64, label %.loopexit, label %16

._crit_edge:                                      ; preds = %16, %14
  %36 = tail call i32 @BN_mod_exp(ptr noundef nonnull %9, ptr noundef nonnull %11, ptr noundef %2, ptr noundef %3, ptr noundef nonnull %13) #14
  %.not59 = icmp eq i32 %36, 0
  br i1 %.not59, label %.loopexit, label %37

37:                                               ; preds = %._crit_edge
  %38 = tail call i32 @BN_num_bits(ptr noundef nonnull %9) #14
  %39 = add nsw i32 %38, 7
  %40 = sdiv i32 %39, 8
  %41 = icmp ugt i32 %40, %1
  br i1 %41, label %42, label %43

42:                                               ; preds = %37
  tail call void (ptr, ...) @cli_errmsg(ptr noundef nonnull @.str.27, i32 noundef %40, i32 noundef %1) #14
  br label %.loopexit

43:                                               ; preds = %37
  %44 = zext nneg i32 %1 to i64
  %45 = tail call noalias ptr @calloc(i64 noundef %44, i64 noundef 1) #18
  %.not60 = icmp eq ptr %45, null
  br i1 %.not60, label %46, label %47

46:                                               ; preds = %43
  tail call void (ptr, ...) @cli_errmsg(ptr noundef nonnull @.str.28) #14
  br label %.loopexit

47:                                               ; preds = %43
  %48 = tail call i32 @BN_bn2bin(ptr noundef nonnull %9, ptr noundef nonnull %45) #14
  %.not61 = icmp eq i32 %48, 0
  %spec.select = select i1 %.not61, ptr %45, ptr null
  %spec.select65 = select i1 %.not61, ptr null, ptr %45
  br label %.loopexit

.loopexit:                                        ; preds = %34, %30, %27, %cli_ndecode.exit, %cli_ndecode.exit.thread, %47, %._crit_edge, %12, %10, %8, %4, %46, %42
  %.043 = phi ptr [ null, %42 ], [ null, %46 ], [ null, %._crit_edge ], [ null, %12 ], [ null, %10 ], [ null, %8 ], [ null, %4 ], [ %spec.select, %47 ], [ null, %cli_ndecode.exit.thread ], [ null, %cli_ndecode.exit ], [ null, %27 ], [ null, %30 ], [ null, %34 ]
  %.042 = phi ptr [ null, %42 ], [ null, %46 ], [ null, %._crit_edge ], [ null, %12 ], [ null, %10 ], [ null, %8 ], [ null, %4 ], [ %spec.select65, %47 ], [ null, %cli_ndecode.exit.thread ], [ null, %cli_ndecode.exit ], [ null, %27 ], [ null, %30 ], [ null, %34 ]
  %.041 = phi ptr [ %9, %42 ], [ %9, %46 ], [ %9, %._crit_edge ], [ %9, %12 ], [ %9, %10 ], [ null, %8 ], [ null, %4 ], [ %9, %47 ], [ %9, %cli_ndecode.exit.thread ], [ %9, %cli_ndecode.exit ], [ %9, %27 ], [ %9, %30 ], [ %9, %34 ]
  %.040 = phi ptr [ %11, %42 ], [ %11, %46 ], [ %11, %._crit_edge ], [ %11, %12 ], [ null, %10 ], [ null, %8 ], [ null, %4 ], [ %11, %47 ], [ %11, %cli_ndecode.exit.thread ], [ %11, %cli_ndecode.exit ], [ %11, %27 ], [ %11, %30 ], [ %11, %34 ]
  %.039 = phi ptr [ %13, %42 ], [ %13, %46 ], [ %13, %._crit_edge ], [ null, %12 ], [ null, %10 ], [ null, %8 ], [ null, %4 ], [ %13, %47 ], [ %13, %cli_ndecode.exit.thread ], [ %13, %cli_ndecode.exit ], [ %13, %27 ], [ %13, %30 ], [ %13, %34 ]
  tail call void @BN_free(ptr noundef %7) #14
  tail call void @BN_free(ptr noundef %.041) #14
  tail call void @BN_free(ptr noundef %.040) #14
  tail call void @BN_CTX_free(ptr noundef %.039) #14
  tail call void @free(ptr noundef %.043) #14
  ret ptr %.042
}